target datalayout = "e-m:e-p270:32:32-p271:32:32-p272:64:64-i64:64-i128:128-f80:128-n8:16:32:64-S128"
target triple = "x86_64-pc-linux-gnu"

%struct.SDL_DriverSwitch_Context = type <{ ptr, ptr, i8, i8, i8, i8, i32, i8, [3 x i8], i32, i32, i8, i8, [6 x i8], i8, [3 x i8], i32, i8, i8, %struct.SwitchCommonOutputPacket_t, [64 x i8], i8, [7 x i8], i64, i8, i8, [2 x i8], i32, i8, i8, i8, [5 x i8], i64, i64, i64, i32, [4 x i8], i64, i64, i8, %struct.SwitchInputOnlyControllerStatePacket_t, %struct.SwitchSimpleStatePacket_t, %struct.SwitchStatePacket_t, i8, [2 x %struct.StickCalibrationData], [2 x %struct.StickExtents], [2 x %struct.StickExtents], %struct.IMUScaleData, [4 x i8] }>
%struct.SwitchCommonOutputPacket_t = type { i8, i8, [2 x %struct.SwitchRumbleData_t] }
%struct.SwitchRumbleData_t = type { [4 x i8] }
%struct.SwitchInputOnlyControllerStatePacket_t = type { [2 x i8], i8, [2 x i8], [2 x i8] }
%struct.SwitchSimpleStatePacket_t = type <{ [2 x i8], i8, [2 x i16], [2 x i16] }>
%struct.SwitchStatePacket_t = type { %struct.SwitchControllerStatePacket_t, [3 x %struct.anon] }
%struct.SwitchControllerStatePacket_t = type { i8, i8, [3 x i8], [3 x i8], [3 x i8], i8 }
%struct.anon = type { i16, i16, i16, i16, i16, i16 }
%struct.StickCalibrationData = type { [2 x %struct.anon.0] }
%struct.anon.0 = type { i16, i16, i16 }
%struct.StickExtents = type { [2 x %struct.anon.1] }
%struct.anon.1 = type { i16, i16 }
%struct.IMUScaleData = type { float, float, float, float, float, float }
%struct.SDL_HIDAPI_Device = type { ptr, ptr, ptr, ptr, i16, i16, i16, ptr, %struct.SDL_GUID, i32, i32, i32, i32, i16, i16, i8, i32, i32, i32, ptr, ptr, ptr, ptr, %struct.SDL_AtomicInt, i32, ptr, i8, i8, i8, ptr, i32, ptr, ptr }
%struct.SDL_GUID = type { [16 x i8] }
%struct.SDL_AtomicInt = type { i32 }
%struct.SwitchSubcommandInputPacket_t = type { %struct.SwitchControllerStatePacket_t, i8, i8, %union.anon }
%union.anon = type { [35 x i8] }
%struct.anon.3 = type { [2 x i8], i8, i8, [6 x i8], i8, i8 }
%struct.SwitchProprietaryStatusPacket_t = type { i8, i8, i8, i8, [6 x i8] }

; Function Attrs: nounwind uwtable
define internal i32 @CalculateControllerType(ptr noundef %0, i32 noundef %1) #0 {
  %3 = alloca ptr, align 8
  %4 = alloca i32, align 4
  %5 = alloca ptr, align 8
  store ptr %0, ptr %3, align 8
  store i32 %1, ptr %4, align 4
  call void @llvm.lifetime.start.p0(i64 8, ptr %5) #6
  %6 = load ptr, ptr %3, align 8
  %7 = getelementptr inbounds nuw %struct.SDL_DriverSwitch_Context, ptr %6, i32 0, i32 0
  %8 = load ptr, ptr %7, align 8
  store ptr %8, ptr %5, align 8
  %9 = load i32, ptr %4, align 4
  %10 = icmp eq i32 %9, 3
  br i1 %10, label %11, label %18

11:                                               ; preds = %2
  %12 = load ptr, ptr %5, align 8
  %13 = getelementptr inbounds nuw %struct.SDL_HIDAPI_Device, ptr %12, i32 0, i32 5
  %14 = load i16, ptr %13, align 2
  %15 = zext i16 %14 to i32
  %16 = icmp eq i32 %15, 8217
  br i1 %16, label %17, label %18

17:                                               ; preds = %11
  store i32 12, ptr %4, align 4
  br label %18

18:                                               ; preds = %17, %11, %2
  %19 = load i32, ptr %4, align 4
  %20 = icmp eq i32 %19, 0
  br i1 %20, label %21, label %36

21:                                               ; preds = %18
  %22 = load ptr, ptr %5, align 8
  %23 = getelementptr inbounds nuw %struct.SDL_HIDAPI_Device, ptr %22, i32 0, i32 5
  %24 = load i16, ptr %23, align 2
  %25 = zext i16 %24 to i32
  %26 = icmp eq i32 %25, 8206
  br i1 %26, label %27, label %35

27:                                               ; preds = %21
  %28 = load ptr, ptr %5, align 8
  %29 = getelementptr inbounds nuw %struct.SDL_HIDAPI_Device, ptr %28, i32 0, i32 9
  %30 = load i32, ptr %29, align 8
  %31 = icmp eq i32 %30, 1
  br i1 %31, label %32, label %33

32:                                               ; preds = %27
  store i32 1, ptr %4, align 4
  br label %34

33:                                               ; preds = %27
  store i32 2, ptr %4, align 4
  br label %34

34:                                               ; preds = %33, %32
  br label %35

35:                                               ; preds = %34, %21
  br label %36

36:                                               ; preds = %35, %18
  %37 = load i32, ptr %4, align 4
  call void @llvm.lifetime.end.p0(i64 8, ptr %5) #6
  ret i32 %37
}

; Function Attrs: nounwind uwtable
define internal i32 @GetMaxWriteAttempts(ptr noundef %0) #0 {
  %2 = alloca i32, align 4
  %3 = alloca ptr, align 8
  store ptr %0, ptr %3, align 8
  %4 = load ptr, ptr %3, align 8
  %5 = getelementptr inbounds nuw %struct.SDL_HIDAPI_Device, ptr %4, i32 0, i32 4
  %6 = load i16, ptr %5, align 8
  %7 = zext i16 %6 to i32
  %8 = icmp eq i32 %7, 1406
  br i1 %8, label %9, label %16

9:                                                ; preds = %1
  %10 = load ptr, ptr %3, align 8
  %11 = getelementptr inbounds nuw %struct.SDL_HIDAPI_Device, ptr %10, i32 0, i32 5
  %12 = load i16, ptr %11, align 2
  %13 = zext i16 %12 to i32
  %14 = icmp eq i32 %13, 8206
  br i1 %14, label %15, label %16

15:                                               ; preds = %9
  store i32 20, ptr %2, align 4
  br label %17

16:                                               ; preds = %9, %1
  store i32 5, ptr %2, align 4
  br label %17

17:                                               ; preds = %16, %15
  %18 = load i32, ptr %2, align 4
  ret i32 %18
}

; Function Attrs: nounwind uwtable
define internal i32 @ReadJoyConControllerType(ptr noundef %0) #0 {
  %2 = alloca ptr, align 8
  %3 = alloca i32, align 4
  %4 = alloca i32, align 4
  %5 = alloca i32, align 4
  %6 = alloca ptr, align 8
  %7 = alloca ptr, align 8
  %8 = alloca ptr, align 8
  store ptr %0, ptr %2, align 8
  call void @llvm.lifetime.start.p0(i64 4, ptr %3) #6
  store i32 0, ptr %3, align 4
  call void @llvm.lifetime.start.p0(i64 4, ptr %4) #6
  store i32 1, ptr %4, align 4
  call void @llvm.lifetime.start.p0(i64 4, ptr %5) #6
  store i32 0, ptr %5, align 4
  call void @llvm.lifetime.start.p0(i64 8, ptr %6) #6
  %9 = call noalias ptr @SDL_calloc_REAL(i64 noundef 1, i64 noundef 360) #7
  store ptr %9, ptr %6, align 8
  %10 = load ptr, ptr %6, align 8
  %11 = icmp ne ptr %10, null
  br i1 %11, label %12, label %65

12:                                               ; preds = %1
  %13 = load ptr, ptr %2, align 8
  %14 = load ptr, ptr %6, align 8
  %15 = getelementptr inbounds nuw %struct.SDL_DriverSwitch_Context, ptr %14, i32 0, i32 0
  store ptr %13, ptr %15, align 8
  %16 = load ptr, ptr %6, align 8
  %17 = getelementptr inbounds nuw %struct.SDL_DriverSwitch_Context, ptr %16, i32 0, i32 7
  store i8 1, ptr %17, align 8
  %18 = load ptr, ptr %2, align 8
  %19 = call i32 @GetMaxWriteAttempts(ptr noundef %18)
  %20 = load ptr, ptr %6, align 8
  %21 = getelementptr inbounds nuw %struct.SDL_DriverSwitch_Context, ptr %20, i32 0, i32 9
  store i32 %19, ptr %21, align 4
  br label %22

22:                                               ; preds = %61, %12
  %23 = load i32, ptr %5, align 4
  %24 = add nsw i32 %23, 1
  store i32 %24, ptr %5, align 4
  %25 = load ptr, ptr %2, align 8
  %26 = getelementptr inbounds nuw %struct.SDL_HIDAPI_Device, ptr %25, i32 0, i32 15
  %27 = load i8, ptr %26, align 4, !range !3, !noundef !4
  %28 = trunc i8 %27 to i1
  br i1 %28, label %29, label %41

29:                                               ; preds = %22
  call void @llvm.lifetime.start.p0(i64 8, ptr %7) #6
  store ptr null, ptr %7, align 8
  %30 = load ptr, ptr %6, align 8
  %31 = call zeroext i1 @WriteSubcommand(ptr noundef %30, i32 noundef 2, ptr noundef null, i8 noundef zeroext 0, ptr noundef %7)
  br i1 %31, label %32, label %40

32:                                               ; preds = %29
  %33 = load ptr, ptr %6, align 8
  %34 = load ptr, ptr %7, align 8
  %35 = getelementptr inbounds nuw %struct.SwitchSubcommandInputPacket_t, ptr %34, i32 0, i32 3
  %36 = getelementptr inbounds nuw %struct.anon.3, ptr %35, i32 0, i32 1
  %37 = load i8, ptr %36, align 1
  %38 = zext i8 %37 to i32
  %39 = call i32 @CalculateControllerType(ptr noundef %33, i32 noundef %38)
  store i32 %39, ptr %3, align 4
  br label %40

40:                                               ; preds = %32, %29
  call void @llvm.lifetime.end.p0(i64 8, ptr %7) #6
  br label %55

41:                                               ; preds = %22
  %42 = load ptr, ptr %6, align 8
  %43 = call zeroext i1 @WriteProprietary(ptr noundef %42, i32 noundef 1, ptr noundef null, i8 noundef zeroext 0, i1 noundef zeroext true)
  br i1 %43, label %44, label %54

44:                                               ; preds = %41
  call void @llvm.lifetime.start.p0(i64 8, ptr %8) #6
  %45 = load ptr, ptr %6, align 8
  %46 = getelementptr inbounds nuw %struct.SDL_DriverSwitch_Context, ptr %45, i32 0, i32 20
  %47 = getelementptr inbounds [64 x i8], ptr %46, i64 0, i64 0
  store ptr %47, ptr %8, align 8
  %48 = load ptr, ptr %6, align 8
  %49 = load ptr, ptr %8, align 8
  %50 = getelementptr inbounds nuw %struct.SwitchProprietaryStatusPacket_t, ptr %49, i32 0, i32 3
  %51 = load i8, ptr %50, align 1
  %52 = zext i8 %51 to i32
  %53 = call i32 @CalculateControllerType(ptr noundef %48, i32 noundef %52)
  store i32 %53, ptr %3, align 4
  call void @llvm.lifetime.end.p0(i64 8, ptr %8) #6
  br label %54

54:                                               ; preds = %44, %41
  br label %55

55:                                               ; preds = %54, %40
  %56 = load i32, ptr %3, align 4
  %57 = icmp eq i32 %56, 0
  br i1 %57, label %58, label %62

58:                                               ; preds = %55
  %59 = load i32, ptr %5, align 4
  %60 = icmp slt i32 %59, 1
  br i1 %60, label %61, label %62

61:                                               ; preds = %58
  call void @SDL_Delay_REAL(i32 noundef 100)
  br label %22

62:                                               ; preds = %58, %55
  br label %63

63:                                               ; preds = %62
  %64 = load ptr, ptr %6, align 8
  call void @SDL_free_REAL(ptr noundef %64)
  br label %65

65:                                               ; preds = %63, %1
  %66 = load i32, ptr %3, align 4
  call void @llvm.lifetime.end.p0(i64 8, ptr %6) #6
  call void @llvm.lifetime.end.p0(i64 4, ptr %5) #6
  call void @llvm.lifetime.end.p0(i64 4, ptr %4) #6
  call void @llvm.lifetime.end.p0(i64 4, ptr %3) #6
  ret i32 %66
}

; Function Attrs: nounwind uwtable
define internal zeroext i1 @HIDAPI_DriverJoyCons_IsSupportedDevice(ptr noundef %0, ptr noundef %1, i32 noundef %2, i16 noundef zeroext %3, i16 noundef zeroext %4, i16 noundef zeroext %5, i32 noundef %6, i32 noundef %7, i32 noundef %8, i32 noundef %9) #0 {
  %11 = alloca i1, align 1
  %12 = alloca ptr, align 8
  %13 = alloca ptr, align 8
  %14 = alloca i32, align 4
  %15 = alloca i16, align 2
  %16 = alloca i16, align 2
  %17 = alloca i16, align 2
  %18 = alloca i32, align 4
  %19 = alloca i32, align 4
  %20 = alloca i32, align 4
  %21 = alloca i32, align 4
  %22 = alloca i32, align 4
  %23 = alloca i32, align 4
  store ptr %0, ptr %12, align 8
  store ptr %1, ptr %13, align 8
  store i32 %2, ptr %14, align 4
  store i16 %3, ptr %15, align 2
  store i16 %4, ptr %16, align 2
  store i16 %5, ptr %17, align 2
  store i32 %6, ptr %18, align 4
  store i32 %7, ptr %19, align 4
  store i32 %8, ptr %20, align 4
  store i32 %9, ptr %21, align 4
  %24 = load i16, ptr %15, align 2
  %25 = zext i16 %24 to i32
  %26 = icmp eq i32 %25, 1406
  br i1 %26, label %27, label %66

27:                                               ; preds = %10
  %28 = load i16, ptr %16, align 2
  %29 = zext i16 %28 to i32
  %30 = icmp eq i32 %29, 8201
  br i1 %30, label %31, label %52

31:                                               ; preds = %27
  %32 = load ptr, ptr %12, align 8
  %33 = icmp ne ptr %32, null
  br i1 %33, label %34, label %52

34:                                               ; preds = %31
  %35 = load ptr, ptr %12, align 8
  %36 = getelementptr inbounds nuw %struct.SDL_HIDAPI_Device, ptr %35, i32 0, i32 22
  %37 = load ptr, ptr %36, align 8
  %38 = icmp ne ptr %37, null
  br i1 %38, label %39, label %52

39:                                               ; preds = %34
  call void @llvm.lifetime.start.p0(i64 4, ptr %22) #6
  %40 = load ptr, ptr %12, align 8
  %41 = call i32 @ReadJoyConControllerType(ptr noundef %40)
  store i32 %41, ptr %22, align 4
  %42 = load i32, ptr %22, align 4
  %43 = icmp eq i32 %42, 1
  br i1 %43, label %47, label %44

44:                                               ; preds = %39
  %45 = load i32, ptr %22, align 4
  %46 = icmp eq i32 %45, 2
  br i1 %46, label %47, label %48

47:                                               ; preds = %44, %39
  store i1 true, ptr %11, align 1
  store i32 1, ptr %23, align 4
  br label %49

48:                                               ; preds = %44
  store i32 0, ptr %23, align 4
  br label %49

49:                                               ; preds = %48, %47
  call void @llvm.lifetime.end.p0(i64 4, ptr %22) #6
  %50 = load i32, ptr %23, align 4
  switch i32 %50, label %69 [
    i32 0, label %51
    i32 1, label %67
  ]

51:                                               ; preds = %49
  br label %52

52:                                               ; preds = %51, %34, %31, %27
  %53 = load i16, ptr %16, align 2
  %54 = zext i16 %53 to i32
  %55 = icmp eq i32 %54, 8198
  br i1 %55, label %64, label %56

56:                                               ; preds = %52
  %57 = load i16, ptr %16, align 2
  %58 = zext i16 %57 to i32
  %59 = icmp eq i32 %58, 8199
  br i1 %59, label %64, label %60

60:                                               ; preds = %56
  %61 = load i16, ptr %16, align 2
  %62 = zext i16 %61 to i32
  %63 = icmp eq i32 %62, 8206
  br i1 %63, label %64, label %65

64:                                               ; preds = %60, %56, %52
  store i1 true, ptr %11, align 1
  br label %67

65:                                               ; preds = %60
  br label %66

66:                                               ; preds = %65, %10
  store i1 false, ptr %11, align 1
  br label %67

67:                                               ; preds = %66, %64, %49
  %68 = load i1, ptr %11, align 1
  ret i1 %68

69:                                               ; preds = %49
  unreachable
}