; Function Attrs: nounwind uwtable
define internal noundef zeroext i1 @HIDAPI_DriverJoyCons_IsSupportedDevice(ptr noundef %0, ptr readnone captures(none) %1, i32 %2, i16 noundef zeroext %3, i16 noundef zeroext %4, i16 zeroext %5, i32 %6, i32 %7, i32 %8, i32 %9) #0 {
  %11 = alloca ptr, align 8
  %12 = icmp eq i16 %3, 1406
  br i1 %12, label %13, label %.thread

13:                                               ; preds = %10
  %14 = icmp eq i16 %4, 8201
  %15 = icmp ne ptr %0, null
  %or.cond = and i1 %15, %14
  br i1 %or.cond, label %16, label %71

16:                                               ; preds = %13
  %17 = getelementptr inbounds nuw i8, ptr %0, i64 128
  %18 = load ptr, ptr %17, align 8
  %.not = icmp eq ptr %18, null
  br i1 %.not, label %.thread, label %19

19:                                               ; preds = %16
  %20 = tail call noalias dereferenceable_or_null(360) ptr @SDL_calloc_REAL(i64 noundef 1, i64 noundef 360) #10
  %.not.i = icmp eq ptr %20, null
  br i1 %.not.i, label %.thread, label %21

21:                                               ; preds = %19
  store ptr %0, ptr %20, align 8
  %22 = getelementptr inbounds nuw i8, ptr %20, i64 24
  store i8 1, ptr %22, align 8
  %23 = getelementptr inbounds nuw i8, ptr %0, i64 32
  %24 = load i16, ptr %23, align 8
  %25 = icmp eq i16 %24, 1406
  br i1 %25, label %26, label %30

26:                                               ; preds = %21
  %27 = getelementptr inbounds nuw i8, ptr %0, i64 34
  %28 = load i16, ptr %27, align 2
  %29 = icmp eq i16 %28, 8206
  br i1 %29, label %GetMaxWriteAttempts.exit.i, label %30

30:                                               ; preds = %26, %21
  br label %GetMaxWriteAttempts.exit.i

GetMaxWriteAttempts.exit.i:                       ; preds = %30, %26
  %.0.i.i = phi i32 [ 5, %30 ], [ 20, %26 ]
  %31 = getelementptr inbounds nuw i8, ptr %20, i64 28
  store i32 %.0.i.i, ptr %31, align 4
  %32 = getelementptr inbounds nuw i8, ptr %0, i64 84
  %33 = load i8, ptr %32, align 4, !range !3, !noundef !4
  %34 = trunc nuw i8 %33 to i1
  br i1 %34, label %35, label %53

35:                                               ; preds = %GetMaxWriteAttempts.exit.i
  call void @llvm.lifetime.start.p0(i64 8, ptr nonnull %11) #9
  store ptr null, ptr %11, align 8
  %36 = call fastcc zeroext i1 @WriteSubcommand(ptr noundef nonnull %20, i32 noundef 2, ptr noundef null, i8 noundef zeroext 0, ptr noundef nonnull %11)
  br i1 %36, label %37, label %CalculateControllerType.exit.i

37:                                               ; preds = %35
  %38 = load ptr, ptr %11, align 8
  %39 = getelementptr inbounds nuw i8, ptr %38, i64 16
  %40 = load i8, ptr %39, align 1
  %41 = zext i8 %40 to i32
  %.val20.i = load ptr, ptr %20, align 8
  switch i8 %40, label %CalculateControllerType.exit.i [
    i8 3, label %.thread.i.i
    i8 0, label %45
  ]

.thread.i.i:                                      ; preds = %37
  %42 = getelementptr inbounds nuw i8, ptr %.val20.i, i64 34
  %43 = load i16, ptr %42, align 2
  %44 = icmp eq i16 %43, 8217
  %spec.select.i.i = select i1 %44, i32 12, i32 3
  br label %CalculateControllerType.exit.i

45:                                               ; preds = %37
  %46 = getelementptr inbounds nuw i8, ptr %.val20.i, i64 34
  %47 = load i16, ptr %46, align 2
  %48 = icmp eq i16 %47, 8206
  br i1 %48, label %49, label %CalculateControllerType.exit.i

49:                                               ; preds = %45
  %50 = getelementptr inbounds nuw i8, ptr %.val20.i, i64 64
  %51 = load i32, ptr %50, align 8
  %52 = icmp eq i32 %51, 1
  %..i.i = select i1 %52, i32 1, i32 2
  br label %CalculateControllerType.exit.i

CalculateControllerType.exit.i:                   ; preds = %49, %45, %.thread.i.i, %37, %35
  %.2.i = phi i32 [ 0, %35 ], [ 0, %45 ], [ %..i.i, %49 ], [ %spec.select.i.i, %.thread.i.i ], [ %41, %37 ]
  call void @llvm.lifetime.end.p0(i64 8, ptr nonnull %11) #9
  br label %ReadJoyConControllerType.exit

53:                                               ; preds = %GetMaxWriteAttempts.exit.i
  %54 = tail call fastcc zeroext i1 @WriteProprietary(ptr noundef nonnull %20, i32 noundef 1, i1 noundef zeroext true)
  br i1 %54, label %55, label %ReadJoyConControllerType.exit.thread

55:                                               ; preds = %53
  %56 = getelementptr inbounds nuw i8, ptr %20, i64 67
  %57 = load i8, ptr %56, align 1
  %58 = zext i8 %57 to i32
  %.val.i = load ptr, ptr %20, align 8
  switch i8 %57, label %ReadJoyConControllerType.exit [
    i8 3, label %.thread.i23.i
    i8 0, label %62
  ]

.thread.i23.i:                                    ; preds = %55
  %59 = getelementptr inbounds nuw i8, ptr %.val.i, i64 34
  %60 = load i16, ptr %59, align 2
  %61 = icmp eq i16 %60, 8217
  %spec.select.i24.i = select i1 %61, i32 12, i32 3
  br label %ReadJoyConControllerType.exit

62:                                               ; preds = %55
  %63 = getelementptr inbounds nuw i8, ptr %.val.i, i64 34
  %64 = load i16, ptr %63, align 2
  %65 = icmp eq i16 %64, 8206
  br i1 %65, label %66, label %ReadJoyConControllerType.exit.thread

66:                                               ; preds = %62
  %67 = getelementptr inbounds nuw i8, ptr %.val.i, i64 64
  %68 = load i32, ptr %67, align 8
  %69 = icmp eq i32 %68, 1
  %..i22.i = select i1 %69, i32 1, i32 2
  br label %ReadJoyConControllerType.exit

ReadJoyConControllerType.exit.thread:             ; preds = %53, %62
  tail call void @SDL_free_REAL(ptr noundef nonnull %20) #9
  br label %.thread

ReadJoyConControllerType.exit:                    ; preds = %CalculateControllerType.exit.i, %55, %.thread.i23.i, %66
  %.3.i = phi i32 [ %.2.i, %CalculateControllerType.exit.i ], [ %..i22.i, %66 ], [ %spec.select.i24.i, %.thread.i23.i ], [ %58, %55 ]
  call void @SDL_free_REAL(ptr noundef nonnull %20) #9
  %70 = add nsw i32 %.3.i, -3
  %or.cond3 = icmp ult i32 %70, -2
  br i1 %or.cond3, label %.thread, label %73

71:                                               ; preds = %13
  %switch.tableidx = add i16 %4, -8198
  %72 = icmp ult i16 %switch.tableidx, 9
  br i1 %72, label %switch.lookup, label %.thread

.thread:                                          ; preds = %71, %ReadJoyConControllerType.exit.thread, %19, %16, %ReadJoyConControllerType.exit, %10
  br label %73

switch.lookup:                                    ; preds = %71
  %switch.cast = trunc nuw i16 %switch.tableidx to i9
  %switch.downshift = lshr i9 -253, %switch.cast
  %switch.masked = trunc i9 %switch.downshift to i1
  br label %73

73:                                               ; preds = %switch.lookup, %ReadJoyConControllerType.exit, %.thread
  %.1 = phi i1 [ true, %ReadJoyConControllerType.exit ], [ false, %.thread ], [ %switch.masked, %switch.lookup ]
  ret i1 %.1
}